; Function Attrs: mustprogress uwtable
define internal fastcc void @_ZN5Yosys5RTLILL11unescape_idB5cxx11ERKNS0_8IdStringE(ptr dead_on_unwind noalias writable align 8 %0, i32 %.0.val) unnamed_addr #4 personality ptr @__gxx_personality_v0 {
  %2 = alloca %"class.std::allocator", align 1
  %3 = alloca %"class.std::__cxx11::basic_string", align 8
  call void @llvm.lifetime.start.p0(i64 1, ptr nonnull %2)
  %4 = sext i32 %.0.val to i64
  %5 = load ptr, ptr getelementptr inbounds (%"class.std::vector.314", ptr @_ZN5Yosys5RTLIL8IdString18global_id_storage_E, i64 0, i32 0, i32 0, i32 0, i32 1), align 8, !noalias !221
  %6 = load ptr, ptr @_ZN5Yosys5RTLIL8IdString18global_id_storage_E, align 8, !noalias !221
  %7 = ptrtoint ptr %5 to i64
  %8 = ptrtoint ptr %6 to i64
  %9 = sub i64 %7, %8
  %10 = ashr exact i64 %9, 3
  %.not.i.i.i = icmp ugt i64 %10, %4
  br i1 %.not.i.i.i, label %_ZNSt6vectorIPcSaIS0_EE2atEm.exit.i, label %11

11:                                               ; preds = %1
  tail call void (ptr, ...) @_ZSt24__throw_out_of_range_fmtPKcz(ptr noundef nonnull @.str.37, i64 noundef %4, i64 noundef %10) #23, !noalias !221
  unreachable

_ZNSt6vectorIPcSaIS0_EE2atEm.exit.i:              ; preds = %1
  %12 = getelementptr inbounds ptr, ptr %6, i64 %4
  %13 = load ptr, ptr %12, align 8, !noalias !221
  call void @_ZNSaIcEC1Ev(ptr noundef nonnull align 1 dereferenceable(1) %2) #21, !noalias !221
  invoke void @_ZNSt7__cxx1112basic_stringIcSt11char_traitsIcESaIcEEC1EPKcRKS3_(ptr noundef nonnull align 8 dereferenceable(32) %3, ptr noundef %13, ptr noundef nonnull align 1 dereferenceable(1) %2)
          to label %_ZNK5Yosys5RTLIL8IdString3strB5cxx11Ev.exit unwind label %14

common.resume:                                    ; preds = %38, %14
  %common.resume.op = phi { ptr, i32 } [ %15, %14 ], [ %39, %38 ]
  resume { ptr, i32 } %common.resume.op

14:                                               ; preds = %_ZNSt6vectorIPcSaIS0_EE2atEm.exit.i
  %15 = landingpad { ptr, i32 }
          cleanup
  call void @_ZNSaIcED1Ev(ptr noundef nonnull align 1 dereferenceable(1) %2) #21
  br label %common.resume

_ZNK5Yosys5RTLIL8IdString3strB5cxx11Ev.exit:      ; preds = %_ZNSt6vectorIPcSaIS0_EE2atEm.exit.i
  call void @_ZNSaIcED1Ev(ptr noundef nonnull align 1 dereferenceable(1) %2) #21
  call void @llvm.lifetime.end.p0(i64 1, ptr nonnull %2)
  %16 = call noundef i64 @_ZNKSt7__cxx1112basic_stringIcSt11char_traitsIcESaIcEE4sizeEv(ptr noundef nonnull align 8 dereferenceable(32) %3) #21, !noalias !255
  %17 = icmp ult i64 %16, 2
  br i1 %17, label %.invoke, label %18

18:                                               ; preds = %_ZNK5Yosys5RTLIL8IdString3strB5cxx11Ev.exit
  %19 = call noundef nonnull align 1 dereferenceable(1) ptr @_ZNKSt7__cxx1112basic_stringIcSt11char_traitsIcESaIcEEixEm(ptr noundef nonnull align 8 dereferenceable(32) %3, i64 noundef 0) #21, !noalias !255
  %20 = load i8, ptr %19, align 1, !noalias !255
  %.not.i = icmp eq i8 %20, 92
  br i1 %.not.i, label %21, label %.invoke

21:                                               ; preds = %18
  %22 = call noundef nonnull align 1 dereferenceable(1) ptr @_ZNKSt7__cxx1112basic_stringIcSt11char_traitsIcESaIcEEixEm(ptr noundef nonnull align 8 dereferenceable(32) %3, i64 noundef 1) #21, !noalias !255
  %23 = load i8, ptr %22, align 1, !noalias !255
  %24 = icmp eq i8 %23, 36
  br i1 %24, label %.invoke, label %25

25:                                               ; preds = %21
  %26 = call noundef nonnull align 1 dereferenceable(1) ptr @_ZNKSt7__cxx1112basic_stringIcSt11char_traitsIcESaIcEEixEm(ptr noundef nonnull align 8 dereferenceable(32) %3, i64 noundef 1) #21, !noalias !255
  %27 = load i8, ptr %26, align 1, !noalias !255
  %28 = icmp eq i8 %27, 92
  br i1 %28, label %.invoke, label %29

29:                                               ; preds = %25
  %30 = call noundef nonnull align 1 dereferenceable(1) ptr @_ZNKSt7__cxx1112basic_stringIcSt11char_traitsIcESaIcEEixEm(ptr noundef nonnull align 8 dereferenceable(32) %3, i64 noundef 1) #21, !noalias !255
  %31 = load i8, ptr %30, align 1, !noalias !255
  %32 = icmp sgt i8 %31, 47
  br i1 %32, label %33, label %37

33:                                               ; preds = %29
  %34 = call noundef nonnull align 1 dereferenceable(1) ptr @_ZNKSt7__cxx1112basic_stringIcSt11char_traitsIcESaIcEEixEm(ptr noundef nonnull align 8 dereferenceable(32) %3, i64 noundef 1) #21, !noalias !255
  %35 = load i8, ptr %34, align 1, !noalias !255
  %36 = icmp slt i8 %35, 58
  br i1 %36, label %.invoke, label %37

.invoke:                                          ; preds = %33, %21, %25, %18, %_ZNK5Yosys5RTLIL8IdString3strB5cxx11Ev.exit
  invoke void @_ZNSt7__cxx1112basic_stringIcSt11char_traitsIcESaIcEEC1ERKS4_(ptr noundef nonnull align 8 dereferenceable(32) %0, ptr noundef nonnull align 8 dereferenceable(32) %3)
          to label %_ZN5Yosys5RTLILL11unescape_idERKNSt7__cxx1112basic_stringIcSt11char_traitsIcESaIcEEE.exit unwind label %38

37:                                               ; preds = %33, %29
  invoke void @_ZNKSt7__cxx1112basic_stringIcSt11char_traitsIcESaIcEE6substrEmm(ptr dead_on_unwind writable sret(%"class.std::__cxx11::basic_string") align 8 %0, ptr noundef nonnull align 8 dereferenceable(32) %3, i64 noundef 1, i64 noundef -1)
          to label %_ZN5Yosys5RTLILL11unescape_idERKNSt7__cxx1112basic_stringIcSt11char_traitsIcESaIcEEE.exit unwind label %38

_ZN5Yosys5RTLILL11unescape_idERKNSt7__cxx1112basic_stringIcSt11char_traitsIcESaIcEEE.exit: ; preds = %.invoke, %37
  call void @_ZNSt7__cxx1112basic_stringIcSt11char_traitsIcESaIcEED1Ev(ptr noundef nonnull align 8 dereferenceable(32) %3) #21
  ret void

38:                                               ; preds = %.invoke, %37
  %39 = landingpad { ptr, i32 }
          cleanup
  call void @_ZNSt7__cxx1112basic_stringIcSt11char_traitsIcESaIcEED1Ev(ptr noundef nonnull align 8 dereferenceable(32) %3) #21
  br label %common.resume
}